target datalayout = "e-m:e-p270:32:32-p271:32:32-p272:64:64-i64:64-i128:128-f80:128-n8:16:32:64-S128"
target triple = "x86_64-pc-linux-gnu"

%struct.AVRational = type { i32, i32 }
%struct.AVStream = type { ptr, i32, i32, ptr, ptr, %struct.AVRational, i64, i64, i64, i32, i32, %struct.AVRational, ptr, %struct.AVRational, %struct.AVPacket, i32, %struct.AVRational, i32 }
%struct.AVPacket = type { ptr, i64, i64, ptr, i32, i32, i32, ptr, i32, i64, i64, ptr, ptr, %struct.AVRational }
%struct.FFStream = type { %struct.AVStream, ptr, i32, ptr, i32, ptr, i32, %struct.anon, i32, i32, %struct.FFFrac, ptr, ptr, i32, i32, i64, i64, i32, i32, i32, i64, i64, i64, i32, i64, i64, i64, i32, i32, [17 x i64], [17 x i8], [17 x i64], i64, i8, i8, %struct.AVRational, %struct.AVProbeData, ptr, i64, i32, i32, i32, ptr, i32, i32, i64, i64, ptr, %struct.AVRational }
%struct.anon = type { ptr, i32 }
%struct.FFFrac = type { i64, i64, i64 }
%struct.AVProbeData = type { ptr, ptr, i32, ptr }
%struct.AVChannelLayout = type { i32, i32, %union.anon.3, ptr }
%union.anon.3 = type { i64 }
%struct.AVCodecContext = type { ptr, i32, i32, ptr, i32, i32, ptr, ptr, ptr, i64, i32, i32, ptr, i32, %struct.AVRational, %struct.AVRational, %struct.AVRational, i32, i32, i32, i32, i32, %struct.AVRational, i32, i32, i32, i32, i32, i32, i32, i32, i32, i32, i32, ptr, ptr, i32, float, float, float, float, float, float, float, float, float, i32, i32, i32, i32, i32, i32, i32, i32, i32, i32, i32, i32, ptr, ptr, ptr, i32, i32, i32, i32, i32, i32, i32, i32, i32, i32, %struct.AVChannelLayout, i32, i32, i32, i32, i32, i32, i32, i32, ptr, i32, i32, i32, float, float, i32, i32, i32, i32, i32, ptr, i64, i64, float, float, i32, i32, ptr, ptr, i32, i32, i32, i32, i32, ptr, ptr, ptr, ptr, i32, i32, [8 x i64], i32, i32, i32, i32, i32, i32, i32, ptr, ptr, i32, i32, i32, i32, i32, i32, i32, i32, i32, i32, ptr, ptr, i32, i32, ptr, ptr, ptr, ptr, i32, i32, i64, i32, i32, i64, ptr, i64, ptr, i32, ptr, i32 }

@.str.16 = private unnamed_addr constant [47 x i8] c"st:%d removing common factor %d from timebase\0A\00", align 1
@.str.17 = private unnamed_addr constant [40 x i8] c"st:%d has too large timebase, reducing\0A\00", align 1
@.str.18 = private unnamed_addr constant [58 x i8] c"Ignoring attempt to set invalid timebase %d/%d for st:%d\0A\00", align 1

; Function Attrs: alwaysinline nounwind uwtable
define internal ptr @ffstream(ptr noundef %0) #2 {
  %2 = alloca ptr, align 8
  store ptr %0, ptr %2, align 8, !tbaa !10
  %3 = load ptr, ptr %2, align 8, !tbaa !10
  ret ptr %3
}

; Function Attrs: nounwind uwtable
define void @avpriv_set_pts_info(ptr noundef %0, i32 noundef %1, i32 noundef %2, i32 noundef %3) #0 {
  %5 = alloca ptr, align 8
  %6 = alloca i32, align 4
  %7 = alloca i32, align 4
  %8 = alloca i32, align 4
  %9 = alloca ptr, align 8
  %10 = alloca %struct.AVRational, align 4
  %11 = alloca i32, align 4
  store ptr %0, ptr %5, align 8, !tbaa !10
  store i32 %1, ptr %6, align 4, !tbaa !74
  store i32 %2, ptr %7, align 4, !tbaa !74
  store i32 %3, ptr %8, align 4, !tbaa !74
  call void @llvm.lifetime.start.p0(i64 8, ptr %9) #11
  %12 = load ptr, ptr %5, align 8, !tbaa !10
  %13 = call ptr @ffstream(ptr noundef %12)
  store ptr %13, ptr %9, align 8, !tbaa !12
  call void @llvm.lifetime.start.p0(i64 8, ptr %10) #11
  %14 = getelementptr inbounds nuw %struct.AVRational, ptr %10, i32 0, i32 0
  %15 = getelementptr inbounds nuw %struct.AVRational, ptr %10, i32 0, i32 1
  %16 = load i32, ptr %7, align 4, !tbaa !74
  %17 = zext i32 %16 to i64
  %18 = load i32, ptr %8, align 4, !tbaa !74
  %19 = zext i32 %18 to i64
  %20 = call i32 @av_reduce(ptr noundef %14, ptr noundef %15, i64 noundef %17, i64 noundef %19, i64 noundef 2147483647)
  %21 = icmp ne i32 %20, 0
  br i1 %21, label %22, label %36

22:                                               ; preds = %4
  %23 = getelementptr inbounds nuw %struct.AVRational, ptr %10, i32 0, i32 0
  %24 = load i32, ptr %23, align 4, !tbaa !159
  %25 = load i32, ptr %7, align 4, !tbaa !74
  %26 = icmp ne i32 %24, %25
  br i1 %26, label %27, label %35

27:                                               ; preds = %22
  %28 = load ptr, ptr %5, align 8, !tbaa !10
  %29 = getelementptr inbounds nuw %struct.AVStream, ptr %28, i32 0, i32 1
  %30 = load i32, ptr %29, align 8, !tbaa !139
  %31 = load i32, ptr %7, align 4, !tbaa !74
  %32 = getelementptr inbounds nuw %struct.AVRational, ptr %10, i32 0, i32 0
  %33 = load i32, ptr %32, align 4, !tbaa !159
  %34 = udiv i32 %31, %33
  call void (ptr, i32, ptr, ...) @av_log(ptr noundef null, i32 noundef 48, ptr noundef @.str.16, i32 noundef %30, i32 noundef %34)
  br label %35

35:                                               ; preds = %27, %22
  br label %40

36:                                               ; preds = %4
  %37 = load ptr, ptr %5, align 8, !tbaa !10
  %38 = getelementptr inbounds nuw %struct.AVStream, ptr %37, i32 0, i32 1
  %39 = load i32, ptr %38, align 8, !tbaa !139
  call void (ptr, i32, ptr, ...) @av_log(ptr noundef null, i32 noundef 24, ptr noundef @.str.17, i32 noundef %39)
  br label %40

40:                                               ; preds = %36, %35
  %41 = getelementptr inbounds nuw %struct.AVRational, ptr %10, i32 0, i32 0
  %42 = load i32, ptr %41, align 4, !tbaa !159
  %43 = icmp sle i32 %42, 0
  br i1 %43, label %48, label %44

44:                                               ; preds = %40
  %45 = getelementptr inbounds nuw %struct.AVRational, ptr %10, i32 0, i32 1
  %46 = load i32, ptr %45, align 4, !tbaa !160
  %47 = icmp sle i32 %46, 0
  br i1 %47, label %48, label %56

48:                                               ; preds = %44, %40
  %49 = getelementptr inbounds nuw %struct.AVRational, ptr %10, i32 0, i32 0
  %50 = load i32, ptr %49, align 4, !tbaa !159
  %51 = getelementptr inbounds nuw %struct.AVRational, ptr %10, i32 0, i32 1
  %52 = load i32, ptr %51, align 4, !tbaa !160
  %53 = load ptr, ptr %5, align 8, !tbaa !10
  %54 = getelementptr inbounds nuw %struct.AVStream, ptr %53, i32 0, i32 1
  %55 = load i32, ptr %54, align 8, !tbaa !139
  call void (ptr, i32, ptr, ...) @av_log(ptr noundef null, i32 noundef 16, ptr noundef @.str.18, i32 noundef %50, i32 noundef %52, i32 noundef %55)
  store i32 1, ptr %11, align 4
  br label %72

56:                                               ; preds = %44
  %57 = load ptr, ptr %5, align 8, !tbaa !10
  %58 = getelementptr inbounds nuw %struct.AVStream, ptr %57, i32 0, i32 5
  call void @llvm.memcpy.p0.p0.i64(ptr align 8 %58, ptr align 4 %10, i64 8, i1 false), !tbaa.struct !90
  %59 = load ptr, ptr %9, align 8, !tbaa !12
  %60 = getelementptr inbounds nuw %struct.FFStream, ptr %59, i32 0, i32 5
  %61 = load ptr, ptr %60, align 8, !tbaa !166
  %62 = icmp ne ptr %61, null
  br i1 %62, label %63, label %68

63:                                               ; preds = %56
  %64 = load ptr, ptr %9, align 8, !tbaa !12
  %65 = getelementptr inbounds nuw %struct.FFStream, ptr %64, i32 0, i32 5
  %66 = load ptr, ptr %65, align 8, !tbaa !166
  %67 = getelementptr inbounds nuw %struct.AVCodecContext, ptr %66, i32 0, i32 15
  call void @llvm.memcpy.p0.p0.i64(ptr align 4 %67, ptr align 4 %10, i64 8, i1 false), !tbaa.struct !90
  br label %68

68:                                               ; preds = %63, %56
  %69 = load i32, ptr %6, align 4, !tbaa !74
  %70 = load ptr, ptr %5, align 8, !tbaa !10
  %71 = getelementptr inbounds nuw %struct.AVStream, ptr %70, i32 0, i32 17
  store i32 %69, ptr %71, align 4, !tbaa !97
  store i32 0, ptr %11, align 4
  br label %72

72:                                               ; preds = %68, %48
  call void @llvm.lifetime.end.p0(i64 8, ptr %10) #11
  call void @llvm.lifetime.end.p0(i64 8, ptr %9) #11
  %73 = load i32, ptr %11, align 4
  switch i32 %73, label %75 [
    i32 0, label %74
    i32 1, label %74
  ]

74:                                               ; preds = %72, %72
  ret void

75:                                               ; preds = %72
  unreachable
}