; Function Attrs: nounwind uwtable
define void @avpriv_set_pts_info(ptr noundef captures(none) %0, i32 noundef %1, i32 noundef %2, i32 noundef %3) local_unnamed_addr #0 {
  %5 = alloca %struct.AVRational, align 8
  call void @llvm.lifetime.start.p0(i64 8, ptr nonnull %5) #13
  %6 = getelementptr inbounds nuw i8, ptr %5, i64 4
  %7 = zext i32 %2 to i64
  %8 = zext i32 %3 to i64
  %9 = call i32 @av_reduce(ptr noundef nonnull %5, ptr noundef nonnull %6, i64 noundef %7, i64 noundef %8, i64 noundef 2147483647) #13
  %.not = icmp eq i32 %9, 0
  br i1 %.not, label %16, label %10

10:                                               ; preds = %4
  %11 = load i32, ptr %5, align 8, !tbaa !135
  %.not16 = icmp eq i32 %11, %2
  br i1 %.not16, label %19, label %12

12:                                               ; preds = %10
  %13 = getelementptr inbounds nuw i8, ptr %0, i64 8
  %14 = load i32, ptr %13, align 8, !tbaa !122
  %15 = udiv i32 %2, %11
  call void (ptr, i32, ptr, ...) @av_log(ptr noundef null, i32 noundef 48, ptr noundef nonnull @.str.16, i32 noundef %14, i32 noundef %15) #13
  br label %19

16:                                               ; preds = %4
  %17 = getelementptr inbounds nuw i8, ptr %0, i64 8
  %18 = load i32, ptr %17, align 8, !tbaa !122
  call void (ptr, i32, ptr, ...) @av_log(ptr noundef null, i32 noundef 24, ptr noundef nonnull @.str.17, i32 noundef %18) #13
  br label %19

19:                                               ; preds = %10, %12, %16
  %20 = load i32, ptr %5, align 8, !tbaa !135
  %21 = icmp slt i32 %20, 1
  %22 = load i32, ptr %6, align 4
  %23 = icmp slt i32 %22, 1
  %or.cond = select i1 %21, i1 true, i1 %23
  br i1 %or.cond, label %24, label %27

24:                                               ; preds = %19
  %25 = getelementptr inbounds nuw i8, ptr %0, i64 8
  %26 = load i32, ptr %25, align 8, !tbaa !122
  call void (ptr, i32, ptr, ...) @av_log(ptr noundef null, i32 noundef 16, ptr noundef nonnull @.str.18, i32 noundef %20, i32 noundef %22, i32 noundef %26) #13
  br label %36

27:                                               ; preds = %19
  %28 = getelementptr inbounds nuw i8, ptr %0, i64 32
  %29 = load i64, ptr %5, align 8
  store i64 %29, ptr %28, align 8
  %30 = getelementptr inbounds nuw i8, ptr %0, i64 248
  %31 = load ptr, ptr %30, align 8, !tbaa !141
  %.not17 = icmp eq ptr %31, null
  br i1 %.not17, label %34, label %32

32:                                               ; preds = %27
  %33 = getelementptr inbounds nuw i8, ptr %31, i64 92
  store i64 %29, ptr %33, align 4
  br label %34

34:                                               ; preds = %32, %27
  %35 = getelementptr inbounds nuw i8, ptr %0, i64 212
  store i32 %1, ptr %35, align 4, !tbaa !85
  br label %36

36:                                               ; preds = %34, %24
  call void @llvm.lifetime.end.p0(i64 8, ptr nonnull %5) #13
  ret void
}